target datalayout = "e-m:e-p270:32:32-p271:32:32-p272:64:64-i64:64-i128:128-f80:128-n8:16:32:64-S128"
target triple = "x86_64-unknown-linux-gnu"

%"class.QuantLib::GFunctionFactory::GFunctionStandard" = type { %"class.QuantLib::GFunction", i32, double, i64 }
%"class.QuantLib::GFunction" = type { ptr }

; Function Attrs: mustprogress nounwind uwtable
define noundef double @_ZN8QuantLib16GFunctionFactory17GFunctionStandard16secondDerivativeEd(ptr noundef nonnull align 8 dereferenceable(32) %this, double noundef %x) unnamed_addr #1 align 2 {
entry:
  %this.addr = alloca ptr, align 8
  %x.addr = alloca double, align 8
  %n = alloca double, align 8
  %a = alloca double, align 8
  %AA = alloca double, align 8
  %A1 = alloca double, align 8
  %B = alloca double, align 8
  %Num = alloca double, align 8
  %Den = alloca double, align 8
  %B1 = alloca double, align 8
  %C = alloca double, align 8
  %C1 = alloca double, align 8
  %D = alloca double, align 8
  %D1 = alloca double, align 8
  store ptr %this, ptr %this.addr, align 8, !tbaa !3
  store double %x, ptr %x.addr, align 8, !tbaa !18
  %this1 = load ptr, ptr %this.addr, align 8
  call void @llvm.lifetime.start.p0(i64 8, ptr %n) #18
  %swapLength_ = getelementptr inbounds nuw %"class.QuantLib::GFunctionFactory::GFunctionStandard", ptr %this1, i32 0, i32 3
  %0 = load i64, ptr %swapLength_, align 8, !tbaa !121
  %conv = uitofp i64 %0 to double
  %q_ = getelementptr inbounds nuw %"class.QuantLib::GFunctionFactory::GFunctionStandard", ptr %this1, i32 0, i32 1
  %1 = load i32, ptr %q_, align 8, !tbaa !124
  %conv2 = sitofp i32 %1 to double
  %mul = fmul double %conv, %conv2
  store double %mul, ptr %n, align 8, !tbaa !18
  call void @llvm.lifetime.start.p0(i64 8, ptr %a) #18
  %2 = load double, ptr %x.addr, align 8, !tbaa !18
  %q_3 = getelementptr inbounds nuw %"class.QuantLib::GFunctionFactory::GFunctionStandard", ptr %this1, i32 0, i32 1
  %3 = load i32, ptr %q_3, align 8, !tbaa !124
  %conv4 = sitofp i32 %3 to double
  %div = fdiv double %2, %conv4
  %add = fadd double 1.000000e+00, %div
  store double %add, ptr %a, align 8, !tbaa !18
  call void @llvm.lifetime.start.p0(i64 8, ptr %AA) #18
  %4 = load double, ptr %a, align 8, !tbaa !18
  %delta_ = getelementptr inbounds nuw %"class.QuantLib::GFunctionFactory::GFunctionStandard", ptr %this1, i32 0, i32 2
  %5 = load double, ptr %delta_, align 8, !tbaa !125
  %q_5 = getelementptr inbounds nuw %"class.QuantLib::GFunctionFactory::GFunctionStandard", ptr %this1, i32 0, i32 1
  %6 = load i32, ptr %q_5, align 8, !tbaa !124
  %conv6 = sitofp i32 %6 to double
  %div7 = fdiv double %5, %conv6
  %7 = load double, ptr %x.addr, align 8, !tbaa !18
  %neg = fneg double %div7
  %8 = call double @llvm.fmuladd.f64(double %neg, double %7, double %4)
  store double %8, ptr %AA, align 8, !tbaa !18
  call void @llvm.lifetime.start.p0(i64 8, ptr %A1) #18
  %delta_9 = getelementptr inbounds nuw %"class.QuantLib::GFunctionFactory::GFunctionStandard", ptr %this1, i32 0, i32 2
  %9 = load double, ptr %delta_9, align 8, !tbaa !125
  %sub = fsub double 1.000000e+00, %9
  %q_10 = getelementptr inbounds nuw %"class.QuantLib::GFunctionFactory::GFunctionStandard", ptr %this1, i32 0, i32 1
  %10 = load i32, ptr %q_10, align 8, !tbaa !124
  %conv11 = sitofp i32 %10 to double
  %div12 = fdiv double %sub, %conv11
  store double %div12, ptr %A1, align 8, !tbaa !18
  call void @llvm.lifetime.start.p0(i64 8, ptr %B) #18
  %11 = load double, ptr %a, align 8, !tbaa !18
  %12 = load double, ptr %n, align 8, !tbaa !18
  %delta_13 = getelementptr inbounds nuw %"class.QuantLib::GFunctionFactory::GFunctionStandard", ptr %this1, i32 0, i32 2
  %13 = load double, ptr %delta_13, align 8, !tbaa !125
  %sub14 = fsub double %12, %13
  %sub15 = fsub double %sub14, 1.000000e+00
  %call = call double @pow(double noundef %11, double noundef %sub15) #18, !tbaa !32
  %14 = load double, ptr %a, align 8, !tbaa !18
  %15 = load double, ptr %n, align 8, !tbaa !18
  %call16 = call double @pow(double noundef %14, double noundef %15) #18, !tbaa !32
  %sub17 = fsub double %call16, 1.000000e+00
  %div18 = fdiv double %call, %sub17
  store double %div18, ptr %B, align 8, !tbaa !18
  call void @llvm.lifetime.start.p0(i64 8, ptr %Num) #18
  %delta_19 = getelementptr inbounds nuw %"class.QuantLib::GFunctionFactory::GFunctionStandard", ptr %this1, i32 0, i32 2
  %16 = load double, ptr %delta_19, align 8, !tbaa !125
  %add20 = fadd double 1.000000e+00, %16
  %17 = load double, ptr %n, align 8, !tbaa !18
  %sub21 = fsub double %add20, %17
  %18 = load double, ptr %a, align 8, !tbaa !18
  %19 = load double, ptr %n, align 8, !tbaa !18
  %delta_22 = getelementptr inbounds nuw %"class.QuantLib::GFunctionFactory::GFunctionStandard", ptr %this1, i32 0, i32 2
  %20 = load double, ptr %delta_22, align 8, !tbaa !125
  %sub23 = fsub double %19, %20
  %sub24 = fsub double %sub23, 2.000000e+00
  %call25 = call double @pow(double noundef %18, double noundef %sub24) #18, !tbaa !32
  %delta_27 = getelementptr inbounds nuw %"class.QuantLib::GFunctionFactory::GFunctionStandard", ptr %this1, i32 0, i32 2
  %21 = load double, ptr %delta_27, align 8, !tbaa !125
  %add28 = fadd double 1.000000e+00, %21
  %22 = load double, ptr %a, align 8, !tbaa !18
  %23 = load double, ptr %n, align 8, !tbaa !18
  %delta_30 = getelementptr inbounds nuw %"class.QuantLib::GFunctionFactory::GFunctionStandard", ptr %this1, i32 0, i32 2
  %24 = load double, ptr %delta_30, align 8, !tbaa !125
  %neg31 = fneg double %24
  %25 = call double @llvm.fmuladd.f64(double 2.000000e+00, double %23, double %neg31)
  %sub32 = fsub double %25, 2.000000e+00
  %call33 = call double @pow(double noundef %22, double noundef %sub32) #18, !tbaa !32
  %mul34 = fmul double %add28, %call33
  %neg35 = fneg double %mul34
  %26 = call double @llvm.fmuladd.f64(double %sub21, double %call25, double %neg35)
  store double %26, ptr %Num, align 8, !tbaa !18
  call void @llvm.lifetime.start.p0(i64 8, ptr %Den) #18
  %27 = load double, ptr %a, align 8, !tbaa !18
  %28 = load double, ptr %n, align 8, !tbaa !18
  %call36 = call double @pow(double noundef %27, double noundef %28) #18, !tbaa !32
  %sub37 = fsub double %call36, 1.000000e+00
  %29 = load double, ptr %a, align 8, !tbaa !18
  %30 = load double, ptr %n, align 8, !tbaa !18
  %call38 = call double @pow(double noundef %29, double noundef %30) #18, !tbaa !32
  %sub39 = fsub double %call38, 1.000000e+00
  %mul40 = fmul double %sub37, %sub39
  store double %mul40, ptr %Den, align 8, !tbaa !18
  call void @llvm.lifetime.start.p0(i64 8, ptr %B1) #18
  %q_41 = getelementptr inbounds nuw %"class.QuantLib::GFunctionFactory::GFunctionStandard", ptr %this1, i32 0, i32 1
  %31 = load i32, ptr %q_41, align 8, !tbaa !124
  %conv42 = sitofp i32 %31 to double
  %div43 = fdiv double 1.000000e+00, %conv42
  %32 = load double, ptr %Num, align 8, !tbaa !18
  %mul44 = fmul double %div43, %32
  %33 = load double, ptr %Den, align 8, !tbaa !18
  %div45 = fdiv double %mul44, %33
  store double %div45, ptr %B1, align 8, !tbaa !18
  call void @llvm.lifetime.start.p0(i64 8, ptr %C) #18
  %34 = load double, ptr %x.addr, align 8, !tbaa !18
  %35 = load double, ptr %a, align 8, !tbaa !18
  %delta_46 = getelementptr inbounds nuw %"class.QuantLib::GFunctionFactory::GFunctionStandard", ptr %this1, i32 0, i32 2
  %36 = load double, ptr %delta_46, align 8, !tbaa !125
  %call47 = call double @pow(double noundef %35, double noundef %36) #18, !tbaa !32
  %div48 = fdiv double %34, %call47
  store double %div48, ptr %C, align 8, !tbaa !18
  call void @llvm.lifetime.start.p0(i64 8, ptr %C1) #18
  %37 = load double, ptr %a, align 8, !tbaa !18
  %delta_49 = getelementptr inbounds nuw %"class.QuantLib::GFunctionFactory::GFunctionStandard", ptr %this1, i32 0, i32 2
  %38 = load double, ptr %delta_49, align 8, !tbaa !125
  %call50 = call double @pow(double noundef %37, double noundef %38) #18, !tbaa !32
  %delta_51 = getelementptr inbounds nuw %"class.QuantLib::GFunctionFactory::GFunctionStandard", ptr %this1, i32 0, i32 2
  %39 = load double, ptr %delta_51, align 8, !tbaa !125
  %q_52 = getelementptr inbounds nuw %"class.QuantLib::GFunctionFactory::GFunctionStandard", ptr %this1, i32 0, i32 1
  %40 = load i32, ptr %q_52, align 8, !tbaa !124
  %conv53 = sitofp i32 %40 to double
  %div54 = fdiv double %39, %conv53
  %41 = load double, ptr %x.addr, align 8, !tbaa !18
  %mul55 = fmul double %div54, %41
  %42 = load double, ptr %a, align 8, !tbaa !18
  %delta_56 = getelementptr inbounds nuw %"class.QuantLib::GFunctionFactory::GFunctionStandard", ptr %this1, i32 0, i32 2
  %43 = load double, ptr %delta_56, align 8, !tbaa !125
  %sub57 = fsub double %43, 1.000000e+00
  %call58 = call double @pow(double noundef %42, double noundef %sub57) #18, !tbaa !32
  %neg60 = fneg double %mul55
  %44 = call double @llvm.fmuladd.f64(double %neg60, double %call58, double %call50)
  %45 = load double, ptr %a, align 8, !tbaa !18
  %delta_61 = getelementptr inbounds nuw %"class.QuantLib::GFunctionFactory::GFunctionStandard", ptr %this1, i32 0, i32 2
  %46 = load double, ptr %delta_61, align 8, !tbaa !125
  %mul62 = fmul double 2.000000e+00, %46
  %call63 = call double @pow(double noundef %45, double noundef %mul62) #18, !tbaa !32
  %div64 = fdiv double %44, %call63
  store double %div64, ptr %C1, align 8, !tbaa !18
  call void @llvm.lifetime.start.p0(i64 8, ptr %D) #18
  %47 = load double, ptr %a, align 8, !tbaa !18
  %48 = load double, ptr %n, align 8, !tbaa !18
  %sub65 = fsub double %48, 1.000000e+00
  %call66 = call double @pow(double noundef %47, double noundef %sub65) #18, !tbaa !32
  %49 = load double, ptr %a, align 8, !tbaa !18
  %50 = load double, ptr %n, align 8, !tbaa !18
  %call67 = call double @pow(double noundef %49, double noundef %50) #18, !tbaa !32
  %sub68 = fsub double %call67, 1.000000e+00
  %51 = load double, ptr %a, align 8, !tbaa !18
  %52 = load double, ptr %n, align 8, !tbaa !18
  %call69 = call double @pow(double noundef %51, double noundef %52) #18, !tbaa !32
  %sub70 = fsub double %call69, 1.000000e+00
  %mul71 = fmul double %sub68, %sub70
  %div72 = fdiv double %call66, %mul71
  store double %div72, ptr %D, align 8, !tbaa !18
  call void @llvm.lifetime.start.p0(i64 8, ptr %D1) #18
  %53 = load double, ptr %n, align 8, !tbaa !18
  %sub73 = fsub double %53, 1.000000e+00
  %54 = load double, ptr %a, align 8, !tbaa !18
  %55 = load double, ptr %n, align 8, !tbaa !18
  %sub74 = fsub double %55, 2.000000e+00
  %call75 = call double @pow(double noundef %54, double noundef %sub74) #18, !tbaa !32
  %mul76 = fmul double %sub73, %call75
  %56 = load double, ptr %a, align 8, !tbaa !18
  %57 = load double, ptr %n, align 8, !tbaa !18
  %call77 = call double @pow(double noundef %56, double noundef %57) #18, !tbaa !32
  %sub78 = fsub double %call77, 1.000000e+00
  %58 = load double, ptr %n, align 8, !tbaa !18
  %mul80 = fmul double 2.000000e+00, %58
  %59 = load double, ptr %a, align 8, !tbaa !18
  %60 = load double, ptr %n, align 8, !tbaa !18
  %sub81 = fsub double %60, 1.000000e+00
  %mul82 = fmul double 2.000000e+00, %sub81
  %call83 = call double @pow(double noundef %59, double noundef %mul82) #18, !tbaa !32
  %mul84 = fmul double %mul80, %call83
  %neg85 = fneg double %mul84
  %61 = call double @llvm.fmuladd.f64(double %mul76, double %sub78, double %neg85)
  %q_86 = getelementptr inbounds nuw %"class.QuantLib::GFunctionFactory::GFunctionStandard", ptr %this1, i32 0, i32 1
  %62 = load i32, ptr %q_86, align 8, !tbaa !124
  %conv87 = sitofp i32 %62 to double
  %63 = load double, ptr %a, align 8, !tbaa !18
  %64 = load double, ptr %n, align 8, !tbaa !18
  %call88 = call double @pow(double noundef %63, double noundef %64) #18, !tbaa !32
  %sub89 = fsub double %call88, 1.000000e+00
  %mul90 = fmul double %conv87, %sub89
  %65 = load double, ptr %a, align 8, !tbaa !18
  %66 = load double, ptr %n, align 8, !tbaa !18
  %call91 = call double @pow(double noundef %65, double noundef %66) #18, !tbaa !32
  %sub92 = fsub double %call91, 1.000000e+00
  %mul93 = fmul double %mul90, %sub92
  %67 = load double, ptr %a, align 8, !tbaa !18
  %68 = load double, ptr %n, align 8, !tbaa !18
  %call94 = call double @pow(double noundef %67, double noundef %68) #18, !tbaa !32
  %sub95 = fsub double %call94, 1.000000e+00
  %mul96 = fmul double %mul93, %sub95
  %div97 = fdiv double %61, %mul96
  store double %div97, ptr %D1, align 8, !tbaa !18
  %69 = load double, ptr %A1, align 8, !tbaa !18
  %70 = load double, ptr %B, align 8, !tbaa !18
  %71 = load double, ptr %AA, align 8, !tbaa !18
  %72 = load double, ptr %B1, align 8, !tbaa !18
  %mul99 = fmul double %71, %72
  %73 = call double @llvm.fmuladd.f64(double %69, double %70, double %mul99)
  %74 = load double, ptr %n, align 8, !tbaa !18
  %q_100 = getelementptr inbounds nuw %"class.QuantLib::GFunctionFactory::GFunctionStandard", ptr %this1, i32 0, i32 1
  %75 = load i32, ptr %q_100, align 8, !tbaa !124
  %conv101 = sitofp i32 %75 to double
  %div102 = fdiv double %74, %conv101
  %76 = load double, ptr %C1, align 8, !tbaa !18
  %77 = load double, ptr %D, align 8, !tbaa !18
  %78 = load double, ptr %C, align 8, !tbaa !18
  %79 = load double, ptr %D1, align 8, !tbaa !18
  %mul104 = fmul double %78, %79
  %80 = call double @llvm.fmuladd.f64(double %76, double %77, double %mul104)
  %neg106 = fneg double %div102
  %81 = call double @llvm.fmuladd.f64(double %neg106, double %80, double %73)
  call void @llvm.lifetime.end.p0(i64 8, ptr %D1) #18
  call void @llvm.lifetime.end.p0(i64 8, ptr %D) #18
  call void @llvm.lifetime.end.p0(i64 8, ptr %C1) #18
  call void @llvm.lifetime.end.p0(i64 8, ptr %C) #18
  call void @llvm.lifetime.end.p0(i64 8, ptr %B1) #18
  call void @llvm.lifetime.end.p0(i64 8, ptr %Den) #18
  call void @llvm.lifetime.end.p0(i64 8, ptr %Num) #18
  call void @llvm.lifetime.end.p0(i64 8, ptr %B) #18
  call void @llvm.lifetime.end.p0(i64 8, ptr %A1) #18
  call void @llvm.lifetime.end.p0(i64 8, ptr %AA) #18
  call void @llvm.lifetime.end.p0(i64 8, ptr %a) #18
  call void @llvm.lifetime.end.p0(i64 8, ptr %n) #18
  ret double %81
}