; Function Attrs: mustprogress nofree nounwind willreturn memory(write, argmem: readwrite) uwtable
define noundef double @_ZN8QuantLib16GFunctionFactory17GFunctionStandard16secondDerivativeEd(ptr nocapture noundef nonnull readonly align 8 dereferenceable(32) %this, double noundef %x) unnamed_addr #20 align 2 {
entry:
  %swapLength_ = getelementptr inbounds nuw i8, ptr %this, i64 24
  %0 = load i64, ptr %swapLength_, align 8, !tbaa !136
  %conv = uitofp i64 %0 to double
  %q_ = getelementptr inbounds nuw i8, ptr %this, i64 8
  %1 = load i32, ptr %q_, align 8, !tbaa !132
  %conv2 = sitofp i32 %1 to double
  %mul = fmul double %conv, %conv2
  %div = fdiv double %x, %conv2
  %add = fadd double %div, 1.000000e+00
  %delta_ = getelementptr inbounds nuw i8, ptr %this, i64 16
  %2 = load double, ptr %delta_, align 8, !tbaa !135
  %3 = fneg double %2
  %neg = fdiv double %3, %conv2
  %4 = tail call double @llvm.fmuladd.f64(double %neg, double %x, double %add)
  %sub = fsub double 1.000000e+00, %2
  %div12 = fdiv double %sub, %conv2
  %sub14 = fsub double %mul, %2
  %sub15 = fadd double %sub14, -1.000000e+00
  %call = tail call double @pow(double noundef %add, double noundef %sub15) #35, !tbaa !58
  %call16 = tail call double @pow(double noundef %add, double noundef %mul) #35, !tbaa !58
  %sub17 = fadd double %call16, -1.000000e+00
  %div18 = fdiv double %call, %sub17
  %add20 = fadd double %2, 1.000000e+00
  %sub21 = fsub double %add20, %mul
  %sub24 = fadd double %sub14, -2.000000e+00
  %call25 = tail call double @pow(double noundef %add, double noundef %sub24) #35, !tbaa !58
  %5 = tail call double @llvm.fmuladd.f64(double %mul, double 2.000000e+00, double %3)
  %sub32 = fadd double %5, -2.000000e+00
  %call33 = tail call double @pow(double noundef %add, double noundef %sub32) #35, !tbaa !58
  %6 = fneg double %call33
  %neg35 = fmul double %add20, %6
  %7 = tail call double @llvm.fmuladd.f64(double %sub21, double %call25, double %neg35)
  %call36 = tail call double @pow(double noundef %add, double noundef %mul) #35, !tbaa !58
  %sub37 = fadd double %call36, -1.000000e+00
  %call38 = tail call double @pow(double noundef %add, double noundef %mul) #35, !tbaa !58
  %sub39 = fadd double %call38, -1.000000e+00
  %mul40 = fmul double %sub37, %sub39
  %8 = load i32, ptr %q_, align 8, !tbaa !132
  %conv42 = sitofp i32 %8 to double
  %div43 = fdiv double 1.000000e+00, %conv42
  %mul44 = fmul double %7, %div43
  %div45 = fdiv double %mul44, %mul40
  %call47 = tail call double @pow(double noundef %add, double noundef %2) #35, !tbaa !58
  %div48 = fdiv double %x, %call47
  %call50 = tail call double @pow(double noundef %add, double noundef %2) #35, !tbaa !58
  %9 = load i32, ptr %q_, align 8, !tbaa !132
  %conv53 = sitofp i32 %9 to double
  %div54 = fdiv double %2, %conv53
  %sub57 = fadd double %2, -1.000000e+00
  %call58 = tail call double @pow(double noundef %add, double noundef %sub57) #35, !tbaa !58
  %10 = fneg double %x
  %neg60 = fmul double %div54, %10
  %11 = tail call double @llvm.fmuladd.f64(double %neg60, double %call58, double %call50)
  %mul62 = fmul double %2, 2.000000e+00
  %call63 = tail call double @pow(double noundef %add, double noundef %mul62) #35, !tbaa !58
  %div64 = fdiv double %11, %call63
  %sub65 = fadd double %mul, -1.000000e+00
  %call66 = tail call double @pow(double noundef %add, double noundef %sub65) #35, !tbaa !58
  %call67 = tail call double @pow(double noundef %add, double noundef %mul) #35, !tbaa !58
  %sub68 = fadd double %call67, -1.000000e+00
  %call69 = tail call double @pow(double noundef %add, double noundef %mul) #35, !tbaa !58
  %sub70 = fadd double %call69, -1.000000e+00
  %mul71 = fmul double %sub68, %sub70
  %div72 = fdiv double %call66, %mul71
  %sub74 = fadd double %mul, -2.000000e+00
  %call75 = tail call double @pow(double noundef %add, double noundef %sub74) #35, !tbaa !58
  %mul76 = fmul double %sub65, %call75
  %call77 = tail call double @pow(double noundef %add, double noundef %mul) #35, !tbaa !58
  %sub78 = fadd double %call77, -1.000000e+00
  %mul80 = fmul double %mul, 2.000000e+00
  %mul82 = fmul double %sub65, 2.000000e+00
  %call83 = tail call double @pow(double noundef %add, double noundef %mul82) #35, !tbaa !58
  %12 = fneg double %call83
  %neg85 = fmul double %mul80, %12
  %13 = tail call double @llvm.fmuladd.f64(double %mul76, double %sub78, double %neg85)
  %14 = load i32, ptr %q_, align 8, !tbaa !132
  %conv87 = sitofp i32 %14 to double
  %call88 = tail call double @pow(double noundef %add, double noundef %mul) #35, !tbaa !58
  %sub89 = fadd double %call88, -1.000000e+00
  %mul90 = fmul double %sub89, %conv87
  %call91 = tail call double @pow(double noundef %add, double noundef %mul) #35, !tbaa !58
  %sub92 = fadd double %call91, -1.000000e+00
  %mul93 = fmul double %mul90, %sub92
  %call94 = tail call double @pow(double noundef %add, double noundef %mul) #35, !tbaa !58
  %sub95 = fadd double %call94, -1.000000e+00
  %mul96 = fmul double %mul93, %sub95
  %div97 = fdiv double %13, %mul96
  %mul99 = fmul double %4, %div45
  %15 = tail call double @llvm.fmuladd.f64(double %div12, double %div18, double %mul99)
  %16 = load i32, ptr %q_, align 8, !tbaa !132
  %conv101 = sitofp i32 %16 to double
  %mul104 = fmul double %div48, %div97
  %17 = tail call double @llvm.fmuladd.f64(double %div64, double %div72, double %mul104)
  %18 = fneg double %mul
  %neg106 = fdiv double %18, %conv101
  %19 = tail call double @llvm.fmuladd.f64(double %neg106, double %17, double %15)
  ret double %19
}